; Function Attrs: mustprogress nofree norecurse nosync nounwind willreturn memory(argmem: read) uwtable
define dso_local range(i32 0, 2) i32 @XML_SetParamEntityParsing(ptr noundef readonly %0, i32 noundef %1) local_unnamed_addr #5 {
  %3 = icmp eq ptr %0, null
  br i1 %3, label %10, label %4

4:                                                ; preds = %2
  %5 = getelementptr inbounds nuw i8, ptr %0, i64 896
  %6 = load i32, ptr %5, align 8, !tbaa !79
  switch i32 %6, label %7 [
    i32 1, label %10
    i32 3, label %10
  ]

7:                                                ; preds = %4
  %8 = icmp eq i32 %1, 0
  %9 = zext i1 %8 to i32
  br label %10

10:                                               ; preds = %4, %4, %2, %7
  %.0 = phi i32 [ %9, %7 ], [ 0, %2 ], [ 0, %4 ], [ 0, %4 ]
  ret i32 %.0
}